                                      1 ;--------------------------------------------------------
                                      2 ; File Created by SDCC : free open source ANSI-C Compiler
                                      3 ; Version 3.9.3 #11345 (Linux)
                                      4 ;--------------------------------------------------------
                                      5 	.module _modslong
                                      6 	.optsdcc -mstm8
                                      7 	
                                      8 ;--------------------------------------------------------
                                      9 ; Public variables in this module
                                     10 ;--------------------------------------------------------
                                     11 	.globl __modslong
                                     12 ;--------------------------------------------------------
                                     13 ; ram data
                                     14 ;--------------------------------------------------------
                                     15 	.area DATA
                                     16 ;--------------------------------------------------------
                                     17 ; ram data
                                     18 ;--------------------------------------------------------
                                     19 	.area INITIALIZED
                                     20 ;--------------------------------------------------------
                                     21 ; absolute external ram data
                                     22 ;--------------------------------------------------------
                                     23 	.area DABS (ABS)
                                     24 
                                     25 ; default segment ordering for linker
                                     26 	.area HOME
                                     27 	.area GSINIT
                                     28 	.area GSFINAL
                                     29 	.area CONST
                                     30 	.area INITIALIZER
                                     31 	.area CODE
                                     32 
                                     33 ;--------------------------------------------------------
                                     34 ; global & static initialisations
                                     35 ;--------------------------------------------------------
                                     36 	.area HOME
                                     37 	.area GSINIT
                                     38 	.area GSFINAL
                                     39 	.area GSINIT
                                     40 ;--------------------------------------------------------
                                     41 ; Home
                                     42 ;--------------------------------------------------------
                                     43 	.area HOME
                                     44 	.area HOME
                                     45 ;--------------------------------------------------------
                                     46 ; code
                                     47 ;--------------------------------------------------------
                                     48 	.area CODE
                                     49 ;	../_modslong.c: 259: _modslong (long a, long b)
                                     50 ;	-----------------------------------------
                                     51 ;	 function _modslong
                                     52 ;	-----------------------------------------
      000000                         53 __modslong:
      000000 52 09            [ 2]   54 	sub	sp, #9
                                     55 ;	../_modslong.c: 263: r = (unsigned long)(a < 0 ? -a : a) % (unsigned long)(b < 0 ? -b : b);
      000002 0D 0D            [ 1]   56 	tnz	(0x0d, sp)
      000004 2B 04            [ 1]   57 	jrmi	00125$
      000006 0F 01            [ 1]   58 	clr	(0x01, sp)
      000008 20 04            [ 2]   59 	jra	00126$
      00000A                         60 00125$:
      00000A A6 01            [ 1]   61 	ld	a, #0x01
      00000C 6B 01            [ 1]   62 	ld	(0x01, sp), a
      00000E                         63 00126$:
      00000E 0D 01            [ 1]   64 	tnz	(0x01, sp)
      000010 27 10            [ 1]   65 	jreq	00106$
      000012 16 0F            [ 2]   66 	ldw	y, (0x0f, sp)
      000014 90 50            [ 2]   67 	negw	y
      000016 1E 0D            [ 2]   68 	ldw	x, (0x0d, sp)
      000018 24 01            [ 1]   69 	jrnc	00128$
      00001A 5C               [ 1]   70 	incw	x
      00001B                         71 00128$:
      00001B 50               [ 2]   72 	negw	x
      00001C 17 08            [ 2]   73 	ldw	(0x08, sp), y
      00001E 1F 06            [ 2]   74 	ldw	(0x06, sp), x
      000020 20 08            [ 2]   75 	jra	00107$
      000022                         76 00106$:
      000022 16 0F            [ 2]   77 	ldw	y, (0x0f, sp)
      000024 17 08            [ 2]   78 	ldw	(0x08, sp), y
      000026 16 0D            [ 2]   79 	ldw	y, (0x0d, sp)
      000028 17 06            [ 2]   80 	ldw	(0x06, sp), y
      00002A                         81 00107$:
      00002A 16 08            [ 2]   82 	ldw	y, (0x08, sp)
      00002C 17 04            [ 2]   83 	ldw	(0x04, sp), y
      00002E 16 06            [ 2]   84 	ldw	y, (0x06, sp)
      000030 17 02            [ 2]   85 	ldw	(0x02, sp), y
      000032 0D 11            [ 1]   86 	tnz	(0x11, sp)
      000034 2A 16            [ 1]   87 	jrpl	00108$
      000036 7B 14            [ 1]   88 	ld	a, (0x14, sp)
      000038 40               [ 1]   89 	neg	a
      000039 6B 09            [ 1]   90 	ld	(0x09, sp), a
      00003B 4F               [ 1]   91 	clr	a
      00003C 12 13            [ 1]   92 	sbc	a, (0x13, sp)
      00003E 6B 08            [ 1]   93 	ld	(0x08, sp), a
      000040 4F               [ 1]   94 	clr	a
      000041 12 12            [ 1]   95 	sbc	a, (0x12, sp)
      000043 6B 07            [ 1]   96 	ld	(0x07, sp), a
      000045 4F               [ 1]   97 	clr	a
      000046 12 11            [ 1]   98 	sbc	a, (0x11, sp)
      000048 6B 06            [ 1]   99 	ld	(0x06, sp), a
      00004A 20 08            [ 2]  100 	jra	00109$
      00004C                        101 00108$:
      00004C 16 13            [ 2]  102 	ldw	y, (0x13, sp)
      00004E 17 08            [ 2]  103 	ldw	(0x08, sp), y
      000050 16 11            [ 2]  104 	ldw	y, (0x11, sp)
      000052 17 06            [ 2]  105 	ldw	(0x06, sp), y
      000054                        106 00109$:
      000054 1E 08            [ 2]  107 	ldw	x, (0x08, sp)
      000056 16 06            [ 2]  108 	ldw	y, (0x06, sp)
      000058 89               [ 2]  109 	pushw	x
      000059 90 89            [ 2]  110 	pushw	y
      00005B 1E 08            [ 2]  111 	ldw	x, (0x08, sp)
      00005D 89               [ 2]  112 	pushw	x
      00005E 1E 08            [ 2]  113 	ldw	x, (0x08, sp)
      000060 89               [ 2]  114 	pushw	x
      000061 8Ds00r00r00      [ 5]  115 	callf	__modulong
      000065 5B 08            [ 2]  116 	addw	sp, #8
      000067 1F 08            [ 2]  117 	ldw	(0x08, sp), x
      000069 17 06            [ 2]  118 	ldw	(0x06, sp), y
                                    119 ;	../_modslong.c: 265: if (a < 0)
      00006B 0D 01            [ 1]  120 	tnz	(0x01, sp)
      00006D 27 0D            [ 1]  121 	jreq	00102$
                                    122 ;	../_modslong.c: 266: return -r;
      00006F 1E 08            [ 2]  123 	ldw	x, (0x08, sp)
      000071 50               [ 2]  124 	negw	x
      000072 16 06            [ 2]  125 	ldw	y, (0x06, sp)
      000074 24 02            [ 1]  126 	jrnc	00131$
      000076 90 5C            [ 1]  127 	incw	y
      000078                        128 00131$:
      000078 90 50            [ 2]  129 	negw	y
      00007A 20 04            [ 2]  130 	jra	00104$
      00007C                        131 00102$:
                                    132 ;	../_modslong.c: 268: return r;
      00007C 1E 08            [ 2]  133 	ldw	x, (0x08, sp)
      00007E 16 06            [ 2]  134 	ldw	y, (0x06, sp)
      000080                        135 00104$:
                                    136 ;	../_modslong.c: 269: }
      000080 5B 09            [ 2]  137 	addw	sp, #9
      000082 87               [ 5]  138 	retf
                                    139 	.area CODE
                                    140 	.area CONST
                                    141 	.area INITIALIZER
                                    142 	.area CABS (ABS)
