                                      1 ;--------------------------------------------------------
                                      2 ; File Created by SDCC : free open source ANSI-C Compiler
                                      3 ; Version 3.9.3 #11345 (Linux)
                                      4 ;--------------------------------------------------------
                                      5 	.module wctomb
                                      6 	.optsdcc -mstm8
                                      7 	
                                      8 ;--------------------------------------------------------
                                      9 ; Public variables in this module
                                     10 ;--------------------------------------------------------
                                     11 	.globl _wctomb
                                     12 ;--------------------------------------------------------
                                     13 ; ram data
                                     14 ;--------------------------------------------------------
                                     15 	.area DATA
                                     16 ;--------------------------------------------------------
                                     17 ; ram data
                                     18 ;--------------------------------------------------------
                                     19 	.area INITIALIZED
                                     20 ;--------------------------------------------------------
                                     21 ; absolute external ram data
                                     22 ;--------------------------------------------------------
                                     23 	.area DABS (ABS)
                                     24 
                                     25 ; default segment ordering for linker
                                     26 	.area HOME
                                     27 	.area GSINIT
                                     28 	.area GSFINAL
                                     29 	.area CONST
                                     30 	.area INITIALIZER
                                     31 	.area CODE
                                     32 
                                     33 ;--------------------------------------------------------
                                     34 ; global & static initialisations
                                     35 ;--------------------------------------------------------
                                     36 	.area HOME
                                     37 	.area GSINIT
                                     38 	.area GSFINAL
                                     39 	.area GSINIT
                                     40 ;--------------------------------------------------------
                                     41 ; Home
                                     42 ;--------------------------------------------------------
                                     43 	.area HOME
                                     44 	.area HOME
                                     45 ;--------------------------------------------------------
                                     46 ; code
                                     47 ;--------------------------------------------------------
                                     48 	.area CODE
                                     49 ;	../wctomb.c: 31: int wctomb(char *s, wchar_t wc)
                                     50 ;	-----------------------------------------
                                     51 ;	 function wctomb
                                     52 ;	-----------------------------------------
      000000                         53 _wctomb:
      000000 52 0C            [ 2]   54 	sub	sp, #12
                                     55 ;	../wctomb.c: 33: if(!s)
                                     56 ;	../wctomb.c: 34: return(0);
      000002 1E 10            [ 2]   57 	ldw	x, (0x10, sp)
      000004 26 04            [ 1]   58 	jrne	00102$
      000006 ACs00r01r05      [ 2]   59 	jpf	00119$
      00000A                         60 00102$:
                                     61 ;	../wctomb.c: 38: s[0] = wc;
      00000A 16 10            [ 2]   62 	ldw	y, (0x10, sp)
      00000C 17 01            [ 2]   63 	ldw	(0x01, sp), y
      00000E 7B 15            [ 1]   64 	ld	a, (0x15, sp)
                                     65 ;	../wctomb.c: 36: if(wc < 0x80)
      000010 1E 14            [ 2]   66 	ldw	x, (0x14, sp)
      000012 A3 00 80         [ 2]   67 	cpw	x, #0x0080
      000015 88               [ 1]   68 	push	a
      000016 7B 14            [ 1]   69 	ld	a, (0x14, sp)
      000018 A2 00            [ 1]   70 	sbc	a, #0x00
      00001A 7B 13            [ 1]   71 	ld	a, (0x13, sp)
      00001C A2 00            [ 1]   72 	sbc	a, #0x00
      00001E 84               [ 1]   73 	pop	a
      00001F 24 09            [ 1]   74 	jrnc	00117$
                                     75 ;	../wctomb.c: 38: s[0] = wc;
      000021 1E 01            [ 2]   76 	ldw	x, (0x01, sp)
      000023 F7               [ 1]   77 	ld	(x), a
                                     78 ;	../wctomb.c: 39: return(1);
      000024 5F               [ 1]   79 	clrw	x
      000025 5C               [ 1]   80 	incw	x
      000026 ACs00r01r05      [ 2]   81 	jpf	00119$
      00002A                         82 00117$:
                                     83 ;	../wctomb.c: 43: s[0] = (wc >> 6) & 0x1f | 0xc0;
      00002A 1E 14            [ 2]   84 	ldw	x, (0x14, sp)
      00002C 88               [ 1]   85 	push	a
      00002D A6 40            [ 1]   86 	ld	a, #0x40
      00002F 62               [ 2]   87 	div	x, a
      000030 84               [ 1]   88 	pop	a
                                     89 ;	../wctomb.c: 44: s[1] = (wc >> 0) & 0x3f | 0x80;
      000031 16 01            [ 2]   90 	ldw	y, (0x01, sp)
      000033 90 5C            [ 1]   91 	incw	y
      000035 17 03            [ 2]   92 	ldw	(0x03, sp), y
      000037 A4 3F            [ 1]   93 	and	a, #0x3f
                                     94 ;	../wctomb.c: 43: s[0] = (wc >> 6) & 0x1f | 0xc0;
      000039 41               [ 1]   95 	exg	a, xl
      00003A 6B 08            [ 1]   96 	ld	(0x08, sp), a
      00003C 41               [ 1]   97 	exg	a, xl
                                     98 ;	../wctomb.c: 44: s[1] = (wc >> 0) & 0x3f | 0x80;
      00003D AA 80            [ 1]   99 	or	a, #0x80
      00003F 6B 05            [ 1]  100 	ld	(0x05, sp), a
                                    101 ;	../wctomb.c: 41: else if(wc < 0x800)
      000041 1E 14            [ 2]  102 	ldw	x, (0x14, sp)
      000043 A3 08 00         [ 2]  103 	cpw	x, #0x0800
      000046 7B 13            [ 1]  104 	ld	a, (0x13, sp)
      000048 A2 00            [ 1]  105 	sbc	a, #0x00
      00004A 7B 12            [ 1]  106 	ld	a, (0x12, sp)
      00004C A2 00            [ 1]  107 	sbc	a, #0x00
      00004E 24 15            [ 1]  108 	jrnc	00114$
                                    109 ;	../wctomb.c: 43: s[0] = (wc >> 6) & 0x1f | 0xc0;
      000050 7B 08            [ 1]  110 	ld	a, (0x08, sp)
      000052 A4 1F            [ 1]  111 	and	a, #0x1f
      000054 AA C0            [ 1]  112 	or	a, #0xc0
      000056 1E 01            [ 2]  113 	ldw	x, (0x01, sp)
      000058 F7               [ 1]  114 	ld	(x), a
                                    115 ;	../wctomb.c: 44: s[1] = (wc >> 0) & 0x3f | 0x80;
      000059 1E 03            [ 2]  116 	ldw	x, (0x03, sp)
      00005B 7B 05            [ 1]  117 	ld	a, (0x05, sp)
      00005D F7               [ 1]  118 	ld	(x), a
                                    119 ;	../wctomb.c: 45: return(2);
      00005E AE 00 02         [ 2]  120 	ldw	x, #0x0002
      000061 ACs00r01r05      [ 2]  121 	jpf	00119$
      000065                        122 00114$:
                                    123 ;	../wctomb.c: 47: else if(wc >= 0xd800 && wc < 0xe000) // Unpaired surrogate
      000065 1E 14            [ 2]  124 	ldw	x, (0x14, sp)
      000067 A3 D8 00         [ 2]  125 	cpw	x, #0xd800
      00006A 7B 13            [ 1]  126 	ld	a, (0x13, sp)
      00006C A2 00            [ 1]  127 	sbc	a, #0x00
      00006E 7B 12            [ 1]  128 	ld	a, (0x12, sp)
      000070 A2 00            [ 1]  129 	sbc	a, #0x00
      000072 25 15            [ 1]  130 	jrc	00110$
      000074 1E 14            [ 2]  131 	ldw	x, (0x14, sp)
      000076 A3 E0 00         [ 2]  132 	cpw	x, #0xe000
      000079 7B 13            [ 1]  133 	ld	a, (0x13, sp)
      00007B A2 00            [ 1]  134 	sbc	a, #0x00
      00007D 7B 12            [ 1]  135 	ld	a, (0x12, sp)
      00007F A2 00            [ 1]  136 	sbc	a, #0x00
      000081 24 06            [ 1]  137 	jrnc	00110$
                                    138 ;	../wctomb.c: 48: return(-1);
      000083 5F               [ 1]  139 	clrw	x
      000084 5A               [ 2]  140 	decw	x
      000085 ACs00r01r05      [ 2]  141 	jpf	00119$
      000089                        142 00110$:
                                    143 ;	../wctomb.c: 51: s[0] = (wc >> 12) & 0x0f | 0xe0;
      000089 16 12            [ 2]  144 	ldw	y, (0x12, sp)
      00008B 17 09            [ 2]  145 	ldw	(0x09, sp), y
      00008D 1E 14            [ 2]  146 	ldw	x, (0x14, sp)
      00008F A6 0C            [ 1]  147 	ld	a, #0x0c
      000091                        148 00161$:
      000091 04 09            [ 1]  149 	srl	(0x09, sp)
      000093 06 0A            [ 1]  150 	rrc	(0x0a, sp)
      000095 56               [ 2]  151 	rrcw	x
      000096 4A               [ 1]  152 	dec	a
      000097 26 F8            [ 1]  153 	jrne	00161$
      000099 1F 0B            [ 2]  154 	ldw	(0x0b, sp), x
                                    155 ;	../wctomb.c: 53: s[2] = (wc >> 0) & 0x3f  | 0x80;
      00009B 1E 01            [ 2]  156 	ldw	x, (0x01, sp)
      00009D 5C               [ 1]  157 	incw	x
      00009E 5C               [ 1]  158 	incw	x
      00009F 1F 06            [ 2]  159 	ldw	(0x06, sp), x
                                    160 ;	../wctomb.c: 51: s[0] = (wc >> 12) & 0x0f | 0xe0;
      0000A1 7B 0C            [ 1]  161 	ld	a, (0x0c, sp)
      0000A3 90 97            [ 1]  162 	ld	yl, a
                                    163 ;	../wctomb.c: 52: s[1] = (wc >> 6) & 0x3f  | 0x80;
      0000A5 7B 08            [ 1]  164 	ld	a, (0x08, sp)
      0000A7 A4 3F            [ 1]  165 	and	a, #0x3f
      0000A9 AA 80            [ 1]  166 	or	a, #0x80
      0000AB 6B 08            [ 1]  167 	ld	(0x08, sp), a
                                    168 ;	../wctomb.c: 49: else if(wc < 0x10000)
      0000AD 1E 12            [ 2]  169 	ldw	x, (0x12, sp)
      0000AF A3 00 01         [ 2]  170 	cpw	x, #0x0001
      0000B2 24 18            [ 1]  171 	jrnc	00107$
                                    172 ;	../wctomb.c: 51: s[0] = (wc >> 12) & 0x0f | 0xe0;
      0000B4 90 9F            [ 1]  173 	ld	a, yl
      0000B6 A4 0F            [ 1]  174 	and	a, #0x0f
      0000B8 AA E0            [ 1]  175 	or	a, #0xe0
      0000BA 1E 01            [ 2]  176 	ldw	x, (0x01, sp)
      0000BC F7               [ 1]  177 	ld	(x), a
                                    178 ;	../wctomb.c: 52: s[1] = (wc >> 6) & 0x3f  | 0x80;
      0000BD 1E 03            [ 2]  179 	ldw	x, (0x03, sp)
      0000BF 7B 08            [ 1]  180 	ld	a, (0x08, sp)
      0000C1 F7               [ 1]  181 	ld	(x), a
                                    182 ;	../wctomb.c: 53: s[2] = (wc >> 0) & 0x3f  | 0x80;
      0000C2 1E 06            [ 2]  183 	ldw	x, (0x06, sp)
      0000C4 7B 05            [ 1]  184 	ld	a, (0x05, sp)
      0000C6 F7               [ 1]  185 	ld	(x), a
                                    186 ;	../wctomb.c: 54: return(3);
      0000C7 AE 00 03         [ 2]  187 	ldw	x, #0x0003
      0000CA 20 39            [ 2]  188 	jra	00119$
      0000CC                        189 00107$:
                                    190 ;	../wctomb.c: 56: else if(wc < 0x110000)
                                    191 ;	../wctomb.c: 58: s[0] = (wc >> 18) & 0x07 | 0xf0;
      0000CC 1E 12            [ 2]  192 	ldw	x, (0x12, sp)
      0000CE A3 00 11         [ 2]  193 	cpw	x, #0x0011
      0000D1 24 30            [ 1]  194 	jrnc	00104$
      0000D3 1F 0B            [ 2]  195 	ldw	(0x0b, sp), x
      0000D5 0F 0A            [ 1]  196 	clr	(0x0a, sp)
      0000D7 0F 09            [ 1]  197 	clr	(0x09, sp)
      0000D9 04 0B            [ 1]  198 	srl	(0x0b, sp)
      0000DB 06 0C            [ 1]  199 	rrc	(0x0c, sp)
      0000DD 04 0B            [ 1]  200 	srl	(0x0b, sp)
      0000DF 06 0C            [ 1]  201 	rrc	(0x0c, sp)
      0000E1 7B 0C            [ 1]  202 	ld	a, (0x0c, sp)
      0000E3 A4 07            [ 1]  203 	and	a, #0x07
      0000E5 AA F0            [ 1]  204 	or	a, #0xf0
      0000E7 1E 01            [ 2]  205 	ldw	x, (0x01, sp)
      0000E9 F7               [ 1]  206 	ld	(x), a
                                    207 ;	../wctomb.c: 59: s[1] = (wc >> 12) & 0x3f | 0x80;
      0000EA 90 9F            [ 1]  208 	ld	a, yl
      0000EC A4 3F            [ 1]  209 	and	a, #0x3f
      0000EE AA 80            [ 1]  210 	or	a, #0x80
      0000F0 1E 03            [ 2]  211 	ldw	x, (0x03, sp)
      0000F2 F7               [ 1]  212 	ld	(x), a
                                    213 ;	../wctomb.c: 60: s[2] = (wc >> 6) & 0x3f  | 0x80;
      0000F3 1E 06            [ 2]  214 	ldw	x, (0x06, sp)
      0000F5 7B 08            [ 1]  215 	ld	a, (0x08, sp)
      0000F7 F7               [ 1]  216 	ld	(x), a
                                    217 ;	../wctomb.c: 61: s[3] = (wc >> 0) & 0x3f  | 0x80;
      0000F8 1E 01            [ 2]  218 	ldw	x, (0x01, sp)
      0000FA 7B 05            [ 1]  219 	ld	a, (0x05, sp)
      0000FC E7 03            [ 1]  220 	ld	(0x0003, x), a
                                    221 ;	../wctomb.c: 62: return(4);
      0000FE AE 00 04         [ 2]  222 	ldw	x, #0x0004
      000101 20 02            [ 2]  223 	jra	00119$
      000103                        224 00104$:
                                    225 ;	../wctomb.c: 65: return(-1);
      000103 5F               [ 1]  226 	clrw	x
      000104 5A               [ 2]  227 	decw	x
      000105                        228 00119$:
                                    229 ;	../wctomb.c: 66: }
      000105 5B 0C            [ 2]  230 	addw	sp, #12
      000107 87               [ 5]  231 	retf
                                    232 	.area CODE
                                    233 	.area CONST
                                    234 	.area INITIALIZER
                                    235 	.area CABS (ABS)
